target datalayout = "e-m:e-p270:32:32-p271:32:32-p272:64:64-i64:64-i128:128-f80:128-n8:16:32:64-S128"
target triple = "x86_64-pc-linux-gnu"

%"class.base::File" = type <{ %"class.base::ScopedGeneric", [4 x i8], %"class.base::FilePath", [4 x i8], i32, i8, i8, [6 x i8] }>
%"class.base::ScopedGeneric" = type { %"struct.base::ScopedGeneric<int, base::internal::ScopedFDCloseTraits>::Data" }
%"struct.base::ScopedGeneric<int, base::internal::ScopedFDCloseTraits>::Data" = type { i32 }
%"class.base::FilePath" = type { %"class.std::__cxx11::basic_string" }
%"class.std::__cxx11::basic_string" = type { %"struct.std::__cxx11::basic_string<char>::_Alloc_hider", i64, %union.anon }
%"struct.std::__cxx11::basic_string<char>::_Alloc_hider" = type { ptr }
%union.anon = type { i64, [8 x i8] }
%"class.base::FileTracing::ScopedTrace" = type { ptr, ptr }

@.str = private unnamed_addr constant [12 x i8] c"File::Close\00", align 1

; Function Attrs: mustprogress uwtable
define linkonce_odr void @_ZN4base13ScopedGenericIiNS_8internal19ScopedFDCloseTraitsEE15FreeIfNecessaryEv(ptr noundef nonnull align 4 dereferenceable(4) %0) #0 comdat align 2 {
  %2 = alloca ptr, align 8
  store ptr %0, ptr %2, align 8, !tbaa !36
  %3 = load ptr, ptr %2, align 8
  %4 = getelementptr inbounds nuw %"class.base::ScopedGeneric", ptr %3, i32 0, i32 0
  %5 = getelementptr inbounds nuw %"struct.base::ScopedGeneric<int, base::internal::ScopedFDCloseTraits>::Data", ptr %4, i32 0, i32 0
  %6 = load i32, ptr %5, align 4, !tbaa !38
  %7 = call noundef i32 @_ZN4base8internal19ScopedFDCloseTraits12InvalidValueEv()
  %8 = icmp ne i32 %6, %7
  br i1 %8, label %9, label %16

9:                                                ; preds = %1
  %10 = getelementptr inbounds nuw %"class.base::ScopedGeneric", ptr %3, i32 0, i32 0
  %11 = getelementptr inbounds nuw %"struct.base::ScopedGeneric<int, base::internal::ScopedFDCloseTraits>::Data", ptr %10, i32 0, i32 0
  %12 = load i32, ptr %11, align 4, !tbaa !38
  call void @_ZN4base8internal19ScopedFDCloseTraits4FreeEi(i32 noundef %12)
  %13 = call noundef i32 @_ZN4base8internal19ScopedFDCloseTraits12InvalidValueEv()
  %14 = getelementptr inbounds nuw %"class.base::ScopedGeneric", ptr %3, i32 0, i32 0
  %15 = getelementptr inbounds nuw %"struct.base::ScopedGeneric<int, base::internal::ScopedFDCloseTraits>::Data", ptr %14, i32 0, i32 0
  store i32 %13, ptr %15, align 4, !tbaa !38
  br label %16

16:                                               ; preds = %9, %1
  ret void
}

; Function Attrs: mustprogress nounwind uwtable
define linkonce_odr noundef zeroext i1 @_ZNK4base13ScopedGenericIiNS_8internal19ScopedFDCloseTraitsEE8is_validEv(ptr noundef nonnull align 4 dereferenceable(4) %0) #4 comdat align 2 {
  %2 = alloca ptr, align 8
  store ptr %0, ptr %2, align 8, !tbaa !36
  %3 = load ptr, ptr %2, align 8
  %4 = getelementptr inbounds nuw %"class.base::ScopedGeneric", ptr %3, i32 0, i32 0
  %5 = getelementptr inbounds nuw %"struct.base::ScopedGeneric<int, base::internal::ScopedFDCloseTraits>::Data", ptr %4, i32 0, i32 0
  %6 = load i32, ptr %5, align 4, !tbaa !38
  %7 = call noundef i32 @_ZN4base8internal19ScopedFDCloseTraits12InvalidValueEv()
  %8 = icmp ne i32 %6, %7
  ret i1 %8
}

; Function Attrs: mustprogress uwtable
define linkonce_odr void @_ZN4base13ScopedGenericIiNS_8internal19ScopedFDCloseTraitsEE5resetERKi(ptr noundef nonnull align 4 dereferenceable(4) %0, ptr noundef nonnull align 4 dereferenceable(4) %1) #0 comdat align 2 {
  %3 = alloca ptr, align 8
  %4 = alloca ptr, align 8
  store ptr %0, ptr %3, align 8, !tbaa !36
  store ptr %1, ptr %4, align 8, !tbaa !42
  %5 = load ptr, ptr %3, align 8
  %6 = getelementptr inbounds nuw %"class.base::ScopedGeneric", ptr %5, i32 0, i32 0
  %7 = getelementptr inbounds nuw %"struct.base::ScopedGeneric<int, base::internal::ScopedFDCloseTraits>::Data", ptr %6, i32 0, i32 0
  %8 = load i32, ptr %7, align 4, !tbaa !38
  %9 = call noundef i32 @_ZN4base8internal19ScopedFDCloseTraits12InvalidValueEv()
  %10 = icmp ne i32 %8, %9
  br i1 %10, label %11, label %19

11:                                               ; preds = %2
  %12 = getelementptr inbounds nuw %"class.base::ScopedGeneric", ptr %5, i32 0, i32 0
  %13 = getelementptr inbounds nuw %"struct.base::ScopedGeneric<int, base::internal::ScopedFDCloseTraits>::Data", ptr %12, i32 0, i32 0
  %14 = load i32, ptr %13, align 4, !tbaa !38
  %15 = load ptr, ptr %4, align 8, !tbaa !42
  %16 = load i32, ptr %15, align 4, !tbaa !41
  %17 = icmp eq i32 %14, %16
  br i1 %17, label %18, label %19

18:                                               ; preds = %11
  call void @abort() #15
  unreachable

19:                                               ; preds = %11, %2
  call void @_ZN4base13ScopedGenericIiNS_8internal19ScopedFDCloseTraitsEE15FreeIfNecessaryEv(ptr noundef nonnull align 4 dereferenceable(4) %5)
  %20 = load ptr, ptr %4, align 8, !tbaa !42
  %21 = load i32, ptr %20, align 4, !tbaa !41
  %22 = getelementptr inbounds nuw %"class.base::ScopedGeneric", ptr %5, i32 0, i32 0
  %23 = getelementptr inbounds nuw %"struct.base::ScopedGeneric<int, base::internal::ScopedFDCloseTraits>::Data", ptr %22, i32 0, i32 0
  store i32 %21, ptr %23, align 4, !tbaa !38
  ret void
}

; Function Attrs: mustprogress nounwind uwtable
define linkonce_odr noundef i32 @_ZN4base8internal19ScopedFDCloseTraits12InvalidValueEv() #4 comdat align 2 {
  ret i32 -1
}

; Function Attrs: mustprogress nounwind uwtable
define linkonce_odr void @_ZN4base18ThreadRestrictions15AssertIOAllowedEv() #4 comdat align 2 {
  ret void
}

; Function Attrs: mustprogress uwtable
define noundef zeroext i1 @_ZNK4base4File7IsValidEv(ptr noundef nonnull align 8 dereferenceable(50) %0) #0 align 2 {
  %2 = alloca ptr, align 8
  store ptr %0, ptr %2, align 8, !tbaa !34
  %3 = load ptr, ptr %2, align 8
  %4 = getelementptr inbounds nuw %"class.base::File", ptr %3, i32 0, i32 0
  %5 = call noundef zeroext i1 @_ZNK4base13ScopedGenericIiNS_8internal19ScopedFDCloseTraitsEE8is_validEv(ptr noundef nonnull align 4 dereferenceable(4) %4)
  ret i1 %5
}

; Function Attrs: mustprogress uwtable
define void @_ZN4base4File5CloseEv(ptr noundef nonnull align 8 dereferenceable(50) %0) #0 align 2 personality ptr @__gxx_personality_v0 {
  %2 = alloca ptr, align 8
  %3 = alloca %"class.base::FileTracing::ScopedTrace", align 8
  %4 = alloca ptr, align 8
  %5 = alloca i32, align 4
  %6 = alloca i32, align 4
  store ptr %0, ptr %2, align 8, !tbaa !34
  %7 = load ptr, ptr %2, align 8
  %8 = call noundef zeroext i1 @_ZNK4base4File7IsValidEv(ptr noundef nonnull align 8 dereferenceable(50) %7)
  br i1 %8, label %10, label %9

9:                                                ; preds = %1
  br label %25

10:                                               ; preds = %1
  call void @llvm.lifetime.start.p0(i64 16, ptr %3) #14
  call void @_ZN4base11FileTracing11ScopedTraceC1Ev(ptr noundef nonnull align 8 dereferenceable(16) %3)
  %11 = invoke noundef zeroext i1 @_ZN4base11FileTracing17IsCategoryEnabledEv()
          to label %12 unwind label %15

12:                                               ; preds = %10
  br i1 %11, label %13, label %19

13:                                               ; preds = %12
  invoke void @_ZN4base11FileTracing11ScopedTrace10InitializeEPKcPKNS_4FileEl(ptr noundef nonnull align 8 dereferenceable(16) %3, ptr noundef @.str, ptr noundef %7, i64 noundef 0)
          to label %14 unwind label %15

14:                                               ; preds = %13
  br label %19

15:                                               ; preds = %19, %13, %10
  %16 = landingpad { ptr, i32 }
          cleanup
  %17 = extractvalue { ptr, i32 } %16, 0
  store ptr %17, ptr %4, align 8
  %18 = extractvalue { ptr, i32 } %16, 1
  store i32 %18, ptr %5, align 4
  br label %30

19:                                               ; preds = %14, %12
  invoke void @_ZN4base18ThreadRestrictions15AssertIOAllowedEv()
          to label %20 unwind label %15

20:                                               ; preds = %19
  %21 = getelementptr inbounds nuw %"class.base::File", ptr %7, i32 0, i32 0
  call void @llvm.lifetime.start.p0(i64 4, ptr %6) #14
  %22 = invoke noundef i32 @_ZN4base8internal19ScopedFDCloseTraits12InvalidValueEv()
          to label %23 unwind label %26

23:                                               ; preds = %20
  store i32 %22, ptr %6, align 4, !tbaa !41
  invoke void @_ZN4base13ScopedGenericIiNS_8internal19ScopedFDCloseTraitsEE5resetERKi(ptr noundef nonnull align 4 dereferenceable(4) %21, ptr noundef nonnull align 4 dereferenceable(4) %6)
          to label %24 unwind label %26

24:                                               ; preds = %23
  call void @llvm.lifetime.end.p0(i64 4, ptr %6) #14
  call void @_ZN4base11FileTracing11ScopedTraceD1Ev(ptr noundef nonnull align 8 dereferenceable(16) %3) #14
  call void @llvm.lifetime.end.p0(i64 16, ptr %3) #14
  br label %25

25:                                               ; preds = %24, %9
  ret void

26:                                               ; preds = %23, %20
  %27 = landingpad { ptr, i32 }
          cleanup
  %28 = extractvalue { ptr, i32 } %27, 0
  store ptr %28, ptr %4, align 8
  %29 = extractvalue { ptr, i32 } %27, 1
  store i32 %29, ptr %5, align 4
  call void @llvm.lifetime.end.p0(i64 4, ptr %6) #14
  br label %30

30:                                               ; preds = %26, %15
  call void @_ZN4base11FileTracing11ScopedTraceD1Ev(ptr noundef nonnull align 8 dereferenceable(16) %3) #14
  call void @llvm.lifetime.end.p0(i64 16, ptr %3) #14
  br label %31

31:                                               ; preds = %30
  %32 = load ptr, ptr %4, align 8
  %33 = load i32, ptr %5, align 4
  %34 = insertvalue { ptr, i32 } poison, ptr %32, 0
  %35 = insertvalue { ptr, i32 } %34, i32 %33, 1
  resume { ptr, i32 } %35
}