; Function Attrs: mustprogress uwtable
define void @_ZN4base4File5CloseEv(ptr noundef nonnull align 8 dereferenceable(50) %0) local_unnamed_addr #0 align 2 personality ptr @__gxx_personality_v0 {
  %2 = alloca %"class.base::FileTracing::ScopedTrace", align 8
  %3 = load i32, ptr %0, align 8, !tbaa !24
  %.not = icmp eq i32 %3, -1
  br i1 %.not, label %14, label %4

4:                                                ; preds = %1
  call void @llvm.lifetime.start.p0(i64 16, ptr nonnull %2) #14
  call void @_ZN4base11FileTracing11ScopedTraceC1Ev(ptr noundef nonnull align 8 dereferenceable(16) %2)
  %5 = invoke noundef zeroext i1 @_ZN4base11FileTracing17IsCategoryEnabledEv()
          to label %6 unwind label %8

6:                                                ; preds = %4
  br i1 %5, label %7, label %10

7:                                                ; preds = %6
  invoke void @_ZN4base11FileTracing11ScopedTrace10InitializeEPKcPKNS_4FileEl(ptr noundef nonnull align 8 dereferenceable(16) %2, ptr noundef nonnull @.str, ptr noundef nonnull %0, i64 noundef 0)
          to label %10 unwind label %8

8:                                                ; preds = %7, %4
  %9 = landingpad { ptr, i32 }
          cleanup
  br label %17

10:                                               ; preds = %7, %6
  %11 = load i32, ptr %0, align 8, !tbaa !24
  %.not.i = icmp eq i32 %11, -1
  br i1 %.not.i, label %13, label %12

12:                                               ; preds = %10
  invoke void @_ZN4base8internal19ScopedFDCloseTraits4FreeEi(i32 noundef %11)
          to label %.noexc unwind label %15

.noexc:                                           ; preds = %12
  store i32 -1, ptr %0, align 8, !tbaa !24
  br label %13

13:                                               ; preds = %.noexc, %10
  store i32 -1, ptr %0, align 8, !tbaa !24
  call void @_ZN4base11FileTracing11ScopedTraceD1Ev(ptr noundef nonnull align 8 dereferenceable(16) %2) #14
  call void @llvm.lifetime.end.p0(i64 16, ptr nonnull %2) #14
  br label %14

14:                                               ; preds = %1, %13
  ret void

15:                                               ; preds = %12
  %16 = landingpad { ptr, i32 }
          cleanup
  br label %17

17:                                               ; preds = %15, %8
  %.pn = phi { ptr, i32 } [ %16, %15 ], [ %9, %8 ]
  call void @_ZN4base11FileTracing11ScopedTraceD1Ev(ptr noundef nonnull align 8 dereferenceable(16) %2) #14
  call void @llvm.lifetime.end.p0(i64 16, ptr nonnull %2) #14
  resume { ptr, i32 } %.pn
}